Certificate:
    Data:
        Version: 3 (0x2)
        Serial Number: 1 (0x1)
        Signature Algorithm: sha256WithRSAEncryption
        Issuer: C=BD, ST=Dhaka, L=Dhaka, O=Software Bangladesh, OU=Software, CN=bdsoftpro.com/emailAddress=delwar@bdsoftpro.com
        Validity
            Not Before: Feb 12 22:45:05 2020 GMT
            Not After : Feb 11 22:45:05 2021 GMT
        Subject: C=BD, ST=Dhaka, L=Rangpur, O=Software Society, OU=Software, CN=webrtc.com/emailAddress=delwar@webrtc.com
        Subject Public Key Info:
            Public Key Algorithm: rsaEncryption
                RSA Public-Key: (2048 bit)
                Modulus:
                    00:b5:be:ac:5e:46:2e:82:17:fd:7e:75:96:69:f1:
                    f5:98:15:05:87:29:cb:52:1b:86:e6:80:15:df:93:
                    d7:b1:fe:ff:4d:9c:fb:ee:3b:98:e3:60:97:f8:f8:
                    7c:90:80:2e:a3:7d:05:17:25:69:79:a1:64:e9:63:
                    b5:b4:29:b3:75:4c:48:1b:30:e7:25:91:01:16:bf:
                    bd:3b:ba:8f:fc:61:06:3d:14:a5:cd:2e:00:27:a2:
                    fd:62:c6:a3:24:d2:f2:4a:7a:84:67:f4:25:15:84:
                    e0:de:5b:19:11:17:83:ed:2b:ad:52:f4:24:06:24:
                    c7:5a:9d:ec:a1:16:e1:59:f7:a3:a4:89:70:3d:e5:
                    bb:6b:10:fe:c7:d1:57:9e:ad:37:23:7e:02:03:51:
                    6a:07:02:0b:d9:23:7f:3d:68:22:25:89:a3:cc:84:
                    dd:0e:e8:ad:88:b1:bf:3f:32:15:fa:13:e7:66:ba:
                    79:a8:b2:2a:e7:c0:4a:f4:d5:03:c9:8c:33:6b:6b:
                    82:25:de:e0:42:3a:db:ee:60:ee:ce:82:52:2d:ca:
                    07:14:44:30:e1:bf:8f:1c:f2:d2:5c:01:44:d4:89:
                    23:cc:a5:19:e9:ac:3f:d7:1d:a8:49:13:d3:5b:3d:
                    9f:84:b9:ac:56:56:58:3c:47:91:75:a7:b2:df:86:
                    76:e7
                Exponent: 65537 (0x10001)
        X509v3 extensions:
            X509v3 Basic Constraints: 
                CA:FALSE
            Netscape Comment: 
                OpenSSL Generated Certificate
            X509v3 Subject Key Identifier: 
                FD:3B:A9:68:62:D5:03:7F:D8:14:0E:1F:AD:73:DA:84:27:D1:4F:43
            X509v3 Authority Key Identifier: 
                keyid:BB:F9:20:8E:E6:BC:7A:03:9A:75:A5:FD:5F:4E:1A:6B:B3:74:7A:47

    Signature Algorithm: sha256WithRSAEncryption
         08:27:78:6b:93:a2:54:c1:e8:db:09:47:c6:b9:d3:d9:50:45:
         96:c5:26:67:63:47:8e:74:f4:17:56:57:78:d6:25:88:45:f8:
         eb:6b:e5:5e:1d:86:5c:cf:f9:77:b2:8d:0f:65:f3:8e:a3:d9:
         9b:23:08:94:71:93:fd:33:1e:ec:a7:4e:05:40:72:c0:5d:ee:
         22:05:07:68:97:63:49:0f:b5:4c:99:94:0d:88:a6:0c:ca:e7:
         22:9c:98:d4:ee:43:7f:b7:ad:15:2a:5e:54:78:ad:d9:fc:37:
         fb:ac:5d:d5:a7:28:9d:2b:46:ab:64:38:84:3e:bd:f6:20:88:
         06:11:4e:ca:ee:cb:a8:b3:21:05:4f:ec:e3:26:6d:07:b8:67:
         ef:7c:37:f8:97:c0:9a:1e:32:d3:1e:ab:f2:59:ac:d3:c9:70:
         a8:1d:c3:86:f7:ef:4d:a5:79:a9:41:dd:36:32:ed:da:1c:8c:
         53:2e:41:06:39:06:bb:8f:01:66:56:27:27:b4:57:ec:d4:ab:
         09:52:e1:20:d5:3d:1c:37:25:e1:ba:25:83:55:d3:25:56:f0:
         08:b3:31:70:60:4c:ca:c7:e8:6f:42:27:c5:15:74:04:ee:20:
         1c:02:6f:21:a5:fd:25:ae:36:64:0f:bb:bf:0c:83:95:33:5f:
         e6:44:1c:d2
-----BEGIN CERTIFICATE-----
MIIEJzCCAw+gAwIBAgIBATANBgkqhkiG9w0BAQsFADCBmzELMAkGA1UEBhMCQkQx
DjAMBgNVBAgMBURoYWthMQ4wDAYDVQQHDAVEaGFrYTEcMBoGA1UECgwTU29mdHdh
cmUgQmFuZ2xhZGVzaDERMA8GA1UECwwIU29mdHdhcmUxFjAUBgNVBAMMDWJkc29m
dHByby5jb20xIzAhBgkqhkiG9w0BCQEWFGRlbHdhckBiZHNvZnRwcm8uY29tMB4X
DTIwMDIxMjIyNDUwNVoXDTIxMDIxMTIyNDUwNVowgZQxCzAJBgNVBAYTAkJEMQ4w
DAYDVQQIDAVEaGFrYTEQMA4GA1UEBwwHUmFuZ3B1cjEZMBcGA1UECgwQU29mdHdh
cmUgU29jaWV0eTERMA8GA1UECwwIU29mdHdhcmUxEzARBgNVBAMMCndlYnJ0Yy5j
b20xIDAeBgkqhkiG9w0BCQEWEWRlbHdhckB3ZWJydGMuY29tMIIBIjANBgkqhkiG
9w0BAQEFAAOCAQ8AMIIBCgKCAQEAtb6sXkYughf9fnWWafH1mBUFhynLUhuG5oAV
35PXsf7/TZz77juY42CX+Ph8kIAuo30FFyVpeaFk6WO1tCmzdUxIGzDnJZEBFr+9
O7qP/GEGPRSlzS4AJ6L9YsajJNLySnqEZ/QlFYTg3lsZEReD7SutUvQkBiTHWp3s
oRbhWfejpIlwPeW7axD+x9FXnq03I34CA1FqBwIL2SN/PWgiJYmjzITdDuitiLG/
PzIV+hPnZrp5qLIq58BK9NUDyYwza2uCJd7gQjrb7mDuzoJSLcoHFEQw4b+PHPLS
XAFE1IkjzKUZ6aw/1x2oSRPTWz2fhLmsVlZYPEeRdaey34Z25wIDAQABo3sweTAJ
BgNVHRMEAjAAMCwGCWCGSAGG+EIBDQQfFh1PcGVuU1NMIEdlbmVyYXRlZCBDZXJ0
aWZpY2F0ZTAdBgNVHQ4EFgQU/TupaGLVA3/YFA4frXPahCfRT0MwHwYDVR0jBBgw
FoAUu/kgjua8egOadaX9X04aa7N0ekcwDQYJKoZIhvcNAQELBQADggEBAAgneGuT
olTB6NsJR8a509lQRZbFJmdjR4509BdWV3jWJYhF+Otr5V4dhlzP+XeyjQ9l846j
2ZsjCJRxk/0zHuynTgVAcsBd7iIFB2iXY0kPtUyZlA2IpgzK5yKcmNTuQ3+3rRUq
XlR4rdn8N/usXdWnKJ0rRqtkOIQ+vfYgiAYRTsruy6izIQVP7OMmbQe4Z+98N/iX
wJoeMtMeq/JZrNPJcKgdw4b3702lealB3TYy7docjFMuQQY5BruPAWZWJye0V+zU
qwlS4SDVPRw3JeG6JYNV0yVW8AizMXBgTMrH6G9CJ8UVdATuIBwCbyGl/SWuNmQP
u78Mg5UzX+ZEHNI=
-----END CERTIFICATE-----
